target datalayout = "e-m:e-p270:32:32-p271:32:32-p272:64:64-i64:64-i128:128-f80:128-n8:16:32:64-S128"
target triple = "x86_64-pc-linux-gnu"

@.str.214 = private unnamed_addr constant [34 x i8] c"method '%1$s' not defined in %2$s\00", align 1

; Function Attrs: nounwind sspstrong uwtable
define internal i64 @rb_mod_remove_method(i32 noundef %0, ptr noundef %1, i64 noundef %2) #0 {
  %4 = alloca i32, align 4
  %5 = alloca ptr, align 8
  %6 = alloca i64, align 8
  %7 = alloca i32, align 4
  %8 = alloca i64, align 8
  %9 = alloca i64, align 8
  store i32 %0, ptr %4, align 4, !tbaa !24
  store ptr %1, ptr %5, align 8, !tbaa !7
  store i64 %2, ptr %6, align 8, !tbaa !31
  call void @llvm.lifetime.start.p0(i64 4, ptr %7) #21
  store i32 0, ptr %7, align 4, !tbaa !24
  br label %10

10:                                               ; preds = %29, %3
  %11 = load i32, ptr %7, align 4, !tbaa !24
  %12 = load i32, ptr %4, align 4, !tbaa !24
  %13 = icmp slt i32 %11, %12
  br i1 %13, label %14, label %32

14:                                               ; preds = %10
  call void @llvm.lifetime.start.p0(i64 8, ptr %8) #21
  %15 = load ptr, ptr %5, align 8, !tbaa !7
  %16 = load i32, ptr %7, align 4, !tbaa !24
  %17 = sext i32 %16 to i64
  %18 = getelementptr i64, ptr %15, i64 %17
  %19 = load i64, ptr %18, align 8, !tbaa !31
  store i64 %19, ptr %8, align 8, !tbaa !31
  call void @llvm.lifetime.start.p0(i64 8, ptr %9) #21
  %20 = call i64 @rb_check_id(ptr noundef %8)
  store i64 %20, ptr %9, align 8, !tbaa !31
  %21 = load i64, ptr %9, align 8, !tbaa !31
  %22 = icmp ne i64 %21, 0
  br i1 %22, label %26, label %23

23:                                               ; preds = %14
  %24 = load i64, ptr %6, align 8, !tbaa !31
  %25 = load i64, ptr %8, align 8, !tbaa !31
  call void @rb_name_err_raise(ptr noundef @.str.214, i64 noundef %24, i64 noundef %25) #38
  unreachable

26:                                               ; preds = %14
  %27 = load i64, ptr %6, align 8, !tbaa !31
  %28 = load i64, ptr %9, align 8, !tbaa !31
  call void @remove_method(i64 noundef %27, i64 noundef %28)
  call void @llvm.lifetime.end.p0(i64 8, ptr %9) #21
  call void @llvm.lifetime.end.p0(i64 8, ptr %8) #21
  br label %29

29:                                               ; preds = %26
  %30 = load i32, ptr %7, align 4, !tbaa !24
  %31 = add i32 %30, 1
  store i32 %31, ptr %7, align 4, !tbaa !24
  br label %10, !llvm.loop !345

32:                                               ; preds = %10
  %33 = load i64, ptr %6, align 8, !tbaa !31
  call void @llvm.lifetime.end.p0(i64 4, ptr %7) #21
  ret i64 %33
}