; Function Attrs: nounwind sspstrong uwtable
define internal noundef i64 @rb_mod_remove_method(i32 noundef %0, ptr noundef readonly captures(none) %1, i64 noundef returned %2) #2 {
  %4 = alloca i64, align 8
  %5 = icmp sgt i32 %0, 0
  br i1 %5, label %.lr.ph.preheader, label %._crit_edge

.lr.ph.preheader:                                 ; preds = %3
  %wide.trip.count = zext nneg i32 %0 to i64
  br label %.lr.ph

.lr.ph:                                           ; preds = %.lr.ph.preheader, %11
  %indvars.iv = phi i64 [ 0, %.lr.ph.preheader ], [ %indvars.iv.next, %11 ]
  call void @llvm.lifetime.start.p0(i64 8, ptr nonnull %4) #21
  %6 = getelementptr i64, ptr %1, i64 %indvars.iv
  %7 = load i64, ptr %6, align 8, !tbaa !7
  store i64 %7, ptr %4, align 8, !tbaa !7
  %8 = call i64 @rb_check_id(ptr noundef nonnull %4) #21
  %.not = icmp eq i64 %8, 0
  br i1 %.not, label %9, label %11

9:                                                ; preds = %.lr.ph
  %10 = load i64, ptr %4, align 8, !tbaa !7
  call fastcc void @rb_name_err_raise(i64 noundef %2, i64 noundef %10) #56
  unreachable

11:                                               ; preds = %.lr.ph
  call fastcc void @remove_method(i64 noundef %2, i64 noundef %8)
  call void @llvm.lifetime.end.p0(i64 8, ptr nonnull %4) #21
  %indvars.iv.next = add nuw nsw i64 %indvars.iv, 1
  %exitcond.not = icmp eq i64 %indvars.iv.next, %wide.trip.count
  br i1 %exitcond.not, label %._crit_edge, label %.lr.ph, !llvm.loop !391

._crit_edge:                                      ; preds = %11, %3
  ret i64 %2
}